target datalayout = "e-m:e-p270:32:32-p271:32:32-p272:64:64-i64:64-i128:128-f80:128-n8:16:32:64-S128"
target triple = "x86_64-pc-linux-gnu"

%struct.SurfaceDataRasInfo = type { %struct.SurfaceDataBounds, ptr, i32, i32, i32, i32, ptr, ptr, ptr, ptr, ptr, ptr, i32, %union.anon.0 }
%struct.SurfaceDataBounds = type { i32, i32, i32, i32 }
%union.anon.0 = type { ptr, [56 x i8] }
%struct._CompositeInfo = type { i32, %union.anon.1, i32 }
%union.anon.1 = type { float }

; Function Attrs: nounwind uwtable
define hidden void @ByteBinary1BitXorRect(ptr noundef %0, i32 noundef %1, i32 noundef %2, i32 noundef %3, i32 noundef %4, i32 noundef %5, ptr noundef %6, ptr noundef %7) #0 {
  %9 = alloca ptr, align 8
  %10 = alloca i32, align 4
  %11 = alloca i32, align 4
  %12 = alloca i32, align 4
  %13 = alloca i32, align 4
  %14 = alloca i32, align 4
  %15 = alloca ptr, align 8
  %16 = alloca ptr, align 8
  %17 = alloca i32, align 4
  %18 = alloca i32, align 4
  %19 = alloca ptr, align 8
  %20 = alloca i32, align 4
  %21 = alloca i32, align 4
  %22 = alloca i32, align 4
  %23 = alloca i32, align 4
  %24 = alloca i32, align 4
  %25 = alloca i32, align 4
  %26 = alloca i32, align 4
  %27 = alloca i32, align 4
  store ptr %0, ptr %9, align 8
  store i32 %1, ptr %10, align 4
  store i32 %2, ptr %11, align 4
  store i32 %3, ptr %12, align 4
  store i32 %4, ptr %13, align 4
  store i32 %5, ptr %14, align 4
  store ptr %6, ptr %15, align 8
  store ptr %7, ptr %16, align 8
  %28 = load ptr, ptr %16, align 8
  %29 = getelementptr inbounds %struct._CompositeInfo, ptr %28, i32 0, i32 1
  %30 = load i32, ptr %29, align 4
  store i32 %30, ptr %17, align 4
  %31 = load ptr, ptr %16, align 8
  %32 = getelementptr inbounds %struct._CompositeInfo, ptr %31, i32 0, i32 2
  %33 = load i32, ptr %32, align 4
  store i32 %33, ptr %18, align 4
  %34 = load ptr, ptr %9, align 8
  %35 = getelementptr inbounds %struct.SurfaceDataRasInfo, ptr %34, i32 0, i32 4
  %36 = load i32, ptr %35, align 8
  store i32 %36, ptr %20, align 4
  %37 = load i32, ptr %13, align 4
  %38 = load i32, ptr %11, align 4
  %39 = sub nsw i32 %37, %38
  store i32 %39, ptr %21, align 4
  %40 = load i32, ptr %12, align 4
  %41 = load i32, ptr %10, align 4
  %42 = sub nsw i32 %40, %41
  store i32 %42, ptr %22, align 4
  %43 = load ptr, ptr %9, align 8
  %44 = getelementptr inbounds %struct.SurfaceDataRasInfo, ptr %43, i32 0, i32 1
  %45 = load ptr, ptr %44, align 8
  %46 = ptrtoint ptr %45 to i64
  %47 = load i32, ptr %11, align 4
  %48 = sext i32 %47 to i64
  %49 = load i32, ptr %20, align 4
  %50 = sext i32 %49 to i64
  %51 = mul nsw i64 %48, %50
  %52 = load i32, ptr %10, align 4
  %53 = sext i32 %52 to i64
  %54 = mul nsw i64 %53, 0
  %55 = add nsw i64 %51, %54
  %56 = add nsw i64 %46, %55
  %57 = inttoptr i64 %56 to ptr
  store ptr %57, ptr %19, align 8
  br label %58

58:                                               ; preds = %125, %8
  %59 = load i32, ptr %10, align 4
  %60 = load ptr, ptr %9, align 8
  %61 = getelementptr inbounds %struct.SurfaceDataRasInfo, ptr %60, i32 0, i32 2
  %62 = load i32, ptr %61, align 8
  %63 = sdiv i32 %62, 1
  %64 = add nsw i32 %59, %63
  store i32 %64, ptr %23, align 4
  %65 = load i32, ptr %23, align 4
  %66 = sdiv i32 %65, 8
  store i32 %66, ptr %24, align 4
  %67 = load i32, ptr %23, align 4
  %68 = srem i32 %67, 8
  %69 = mul nsw i32 %68, 1
  %70 = sub nsw i32 7, %69
  store i32 %70, ptr %25, align 4
  %71 = load ptr, ptr %19, align 8
  %72 = load i32, ptr %24, align 4
  %73 = sext i32 %72 to i64
  %74 = getelementptr inbounds i8, ptr %71, i64 %73
  %75 = load i8, ptr %74, align 1
  %76 = zext i8 %75 to i32
  store i32 %76, ptr %26, align 4
  %77 = load i32, ptr %22, align 4
  store i32 %77, ptr %27, align 4
  br label %78

78:                                               ; preds = %108, %58
  br label %79

79:                                               ; preds = %78
  %80 = load i32, ptr %25, align 4
  %81 = icmp slt i32 %80, 0
  br i1 %81, label %82, label %96

82:                                               ; preds = %79
  %83 = load i32, ptr %26, align 4
  %84 = trunc i32 %83 to i8
  %85 = load ptr, ptr %19, align 8
  %86 = load i32, ptr %24, align 4
  %87 = sext i32 %86 to i64
  %88 = getelementptr inbounds i8, ptr %85, i64 %87
  store i8 %84, ptr %88, align 1
  %89 = load ptr, ptr %19, align 8
  %90 = load i32, ptr %24, align 4
  %91 = add nsw i32 %90, 1
  store i32 %91, ptr %24, align 4
  %92 = sext i32 %91 to i64
  %93 = getelementptr inbounds i8, ptr %89, i64 %92
  %94 = load i8, ptr %93, align 1
  %95 = zext i8 %94 to i32
  store i32 %95, ptr %26, align 4
  store i32 7, ptr %25, align 4
  br label %96

96:                                               ; preds = %82, %79
  br label %97

97:                                               ; preds = %96
  %98 = load i32, ptr %14, align 4
  %99 = load i32, ptr %17, align 4
  %100 = xor i32 %98, %99
  %101 = and i32 %100, 1
  %102 = load i32, ptr %25, align 4
  %103 = shl i32 %101, %102
  %104 = load i32, ptr %26, align 4
  %105 = xor i32 %104, %103
  store i32 %105, ptr %26, align 4
  %106 = load i32, ptr %25, align 4
  %107 = sub nsw i32 %106, 1
  store i32 %107, ptr %25, align 4
  br label %108

108:                                              ; preds = %97
  %109 = load i32, ptr %27, align 4
  %110 = add nsw i32 %109, -1
  store i32 %110, ptr %27, align 4
  %111 = icmp sgt i32 %110, 0
  br i1 %111, label %78, label %112, !llvm.loop !14

112:                                              ; preds = %108
  %113 = load i32, ptr %26, align 4
  %114 = trunc i32 %113 to i8
  %115 = load ptr, ptr %19, align 8
  %116 = load i32, ptr %24, align 4
  %117 = sext i32 %116 to i64
  %118 = getelementptr inbounds i8, ptr %115, i64 %117
  store i8 %114, ptr %118, align 1
  %119 = load ptr, ptr %19, align 8
  %120 = ptrtoint ptr %119 to i64
  %121 = load i32, ptr %20, align 4
  %122 = sext i32 %121 to i64
  %123 = add nsw i64 %120, %122
  %124 = inttoptr i64 %123 to ptr
  store ptr %124, ptr %19, align 8
  br label %125

125:                                              ; preds = %112
  %126 = load i32, ptr %21, align 4
  %127 = add i32 %126, -1
  store i32 %127, ptr %21, align 4
  %128 = icmp ugt i32 %127, 0
  br i1 %128, label %58, label %129, !llvm.loop !15

129:                                              ; preds = %125
  ret void
}