; Function Attrs: nofree norecurse nosync nounwind memory(readwrite, inaccessiblemem: none) uwtable
define hidden void @ByteBinary1BitXorRect(ptr nocapture noundef readonly %0, i32 noundef %1, i32 noundef %2, i32 noundef %3, i32 noundef %4, i32 noundef %5, ptr nocapture readnone %6, ptr nocapture noundef readonly %7) #0 {
  %9 = getelementptr inbounds i8, ptr %7, i64 4
  %10 = load i32, ptr %9, align 4
  %11 = getelementptr inbounds i8, ptr %0, i64 32
  %12 = load i32, ptr %11, align 8
  %13 = sub nsw i32 %4, %2
  %14 = sub nsw i32 %3, %1
  %15 = getelementptr inbounds i8, ptr %0, i64 16
  %16 = load ptr, ptr %15, align 8
  %17 = ptrtoint ptr %16 to i64
  %18 = sext i32 %2 to i64
  %19 = sext i32 %12 to i64
  %20 = mul nsw i64 %19, %18
  %21 = add nsw i64 %20, %17
  %22 = getelementptr inbounds i8, ptr %0, i64 24
  %23 = xor i32 %10, %5
  %24 = and i32 %23, 1
  br label %25

25:                                               ; preds = %52, %8
  %.041 = phi i32 [ %13, %8 ], [ %57, %52 ]
  %.040.in = phi i64 [ %21, %8 ], [ %56, %52 ]
  %.040 = inttoptr i64 %.040.in to ptr
  %26 = load i32, ptr %22, align 8
  %27 = add nsw i32 %26, %1
  %28 = sdiv i32 %27, 8
  %29 = srem i32 %27, 8
  %30 = sub nsw i32 7, %29
  %31 = sext i32 %28 to i64
  %32 = getelementptr inbounds i8, ptr %.040, i64 %31
  %33 = load i8, ptr %32, align 1
  %34 = zext i8 %33 to i32
  br label %35

35:                                               ; preds = %46, %25
  %.038 = phi i32 [ %28, %25 ], [ %.139, %46 ]
  %.036 = phi i32 [ %30, %25 ], [ %49, %46 ]
  %.035 = phi i32 [ %34, %25 ], [ %48, %46 ]
  %.0 = phi i32 [ %14, %25 ], [ %50, %46 ]
  %36 = icmp slt i32 %.036, 0
  br i1 %36, label %37, label %46

37:                                               ; preds = %35
  %38 = trunc i32 %.035 to i8
  %39 = sext i32 %.038 to i64
  %40 = getelementptr inbounds i8, ptr %.040, i64 %39
  store i8 %38, ptr %40, align 1
  %41 = add nsw i32 %.038, 1
  %42 = sext i32 %41 to i64
  %43 = getelementptr inbounds i8, ptr %.040, i64 %42
  %44 = load i8, ptr %43, align 1
  %45 = zext i8 %44 to i32
  br label %46

46:                                               ; preds = %35, %37
  %.139 = phi i32 [ %41, %37 ], [ %.038, %35 ]
  %.137 = phi i32 [ 7, %37 ], [ %.036, %35 ]
  %.1 = phi i32 [ %45, %37 ], [ %.035, %35 ]
  %47 = shl nuw nsw i32 %24, %.137
  %48 = xor i32 %.1, %47
  %49 = add nsw i32 %.137, -1
  %50 = add nsw i32 %.0, -1
  %51 = icmp sgt i32 %.0, 1
  br i1 %51, label %35, label %52, !llvm.loop !14

52:                                               ; preds = %46
  %53 = trunc i32 %48 to i8
  %54 = sext i32 %.139 to i64
  %55 = getelementptr inbounds i8, ptr %.040, i64 %54
  store i8 %53, ptr %55, align 1
  %56 = add nsw i64 %.040.in, %19
  %57 = add i32 %.041, -1
  %.not = icmp eq i32 %57, 0
  br i1 %.not, label %58, label %25, !llvm.loop !15

58:                                               ; preds = %52
  ret void
}